target datalayout = "e-m:e-p270:32:32-p271:32:32-p272:64:64-i64:64-i128:128-f80:128-n8:16:32:64-S128"
target triple = "x86_64-pc-linux-gnu"

%struct.dt_lib_module_t = type { %struct.dt_action_t, ptr, ptr, ptr, ptr, ptr, ptr, ptr, ptr, ptr, ptr, ptr, ptr, ptr, ptr, ptr, ptr, ptr, ptr, ptr, ptr, ptr, ptr, ptr, ptr, ptr, ptr, ptr, ptr, ptr, ptr, [128 x i8], ptr, ptr, i32, ptr, ptr, ptr, i32 }
%struct.dt_action_t = type { i32, ptr, ptr, ptr, ptr, ptr }
%struct.dt_lib_tagging_t = type { [1024 x i8], ptr, ptr, ptr, ptr, ptr, ptr, ptr, ptr, ptr, ptr, ptr, ptr, ptr, ptr, ptr, ptr, ptr, ptr, ptr, ptr, ptr, i32, i32, i32, i32, i32, ptr, ptr, %struct.anon, i32 }
%struct.anon = type { ptr, ptr, ptr, i32, i32, i32, i32, i32 }
%struct._GtkTreeIter = type { i32, ptr, ptr, ptr }
%struct._GdkEventKey = type { i32, ptr, i8, i32, i32, i32, i32, ptr, i16, i8, i8 }

@.str.5 = private unnamed_addr constant [1 x i8] zeroinitializer, align 1
@dt_modifier_shortcuts = external global i32, align 4

; Function Attrs: inlinehint nounwind uwtable
define internal i32 @dt_modifier_is(i32 noundef %0, i32 noundef %1) #7 {
  %3 = alloca i32, align 4
  %4 = alloca i32, align 4
  %5 = alloca i32, align 4
  store i32 %0, ptr %3, align 4, !tbaa !31
  store i32 %1, ptr %4, align 4, !tbaa !31
  call void @llvm.lifetime.start.p0(i64 4, ptr %5) #11
  %6 = call i32 @gtk_accelerator_get_default_mod_mask()
  store i32 %6, ptr %5, align 4, !tbaa !31
  %7 = load i32, ptr %3, align 4, !tbaa !31
  %8 = load i32, ptr @dt_modifier_shortcuts, align 4, !tbaa !31
  %9 = or i32 %7, %8
  %10 = load i32, ptr %5, align 4, !tbaa !31
  %11 = and i32 %9, %10
  %12 = load i32, ptr %4, align 4, !tbaa !31
  %13 = icmp eq i32 %11, %12
  %14 = zext i1 %13 to i32
  call void @llvm.lifetime.end.p0(i64 4, ptr %5) #11
  ret i32 %14
}

; Function Attrs: nounwind uwtable
define internal void @_unselect_all_in_view(ptr noundef %0) #0 {
  %2 = alloca ptr, align 8
  %3 = alloca ptr, align 8
  store ptr %0, ptr %2, align 8, !tbaa !35
  call void @llvm.lifetime.start.p0(i64 8, ptr %3) #11
  %4 = load ptr, ptr %2, align 8, !tbaa !35
  %5 = call ptr @gtk_tree_view_get_selection(ptr noundef %4)
  store ptr %5, ptr %3, align 8, !tbaa !59
  %6 = load ptr, ptr %3, align 8, !tbaa !59
  call void @gtk_tree_selection_unselect_all(ptr noundef %6)
  call void @llvm.lifetime.end.p0(i64 8, ptr %3) #11
  ret void
}

; Function Attrs: nounwind uwtable
define internal i32 @_dictionary_key_pressed(ptr noundef %0, ptr noundef %1, ptr noundef %2) #0 {
  %4 = alloca ptr, align 8
  %5 = alloca ptr, align 8
  %6 = alloca ptr, align 8
  %7 = alloca ptr, align 8
  %8 = alloca %struct._GtkTreeIter, align 8
  %9 = alloca ptr, align 8
  %10 = alloca ptr, align 8
  %11 = alloca i32, align 4
  %12 = alloca ptr, align 8
  store ptr %0, ptr %4, align 8, !tbaa !108
  store ptr %1, ptr %5, align 8, !tbaa !149
  store ptr %2, ptr %6, align 8, !tbaa !6
  call void @llvm.lifetime.start.p0(i64 8, ptr %7) #11
  %13 = load ptr, ptr %6, align 8, !tbaa !6
  %14 = getelementptr inbounds nuw %struct.dt_lib_module_t, ptr %13, i32 0, i32 30
  %15 = load ptr, ptr %14, align 8, !tbaa !11
  store ptr %15, ptr %7, align 8, !tbaa !19
  %16 = load ptr, ptr %7, align 8, !tbaa !19
  %17 = getelementptr inbounds nuw %struct.dt_lib_tagging_t, ptr %16, i32 0, i32 3
  %18 = load ptr, ptr %17, align 8, !tbaa !34
  call void @_unselect_all_in_view(ptr noundef %18)
  call void @llvm.lifetime.start.p0(i64 32, ptr %8) #11
  call void @llvm.lifetime.start.p0(i64 8, ptr %9) #11
  %19 = load ptr, ptr %7, align 8, !tbaa !19
  %20 = getelementptr inbounds nuw %struct.dt_lib_tagging_t, ptr %19, i32 0, i32 4
  %21 = load ptr, ptr %20, align 8, !tbaa !40
  %22 = call i64 @gtk_tree_view_get_type() #12
  %23 = call ptr @g_type_check_instance_cast(ptr noundef %21, i64 noundef %22)
  %24 = call ptr @gtk_tree_view_get_model(ptr noundef %23)
  store ptr %24, ptr %9, align 8, !tbaa !36
  call void @llvm.lifetime.start.p0(i64 8, ptr %10) #11
  %25 = load ptr, ptr %4, align 8, !tbaa !108
  %26 = call i64 @gtk_tree_view_get_type() #12
  %27 = call ptr @g_type_check_instance_cast(ptr noundef %25, i64 noundef %26)
  %28 = call ptr @gtk_tree_view_get_selection(ptr noundef %27)
  store ptr %28, ptr %10, align 8, !tbaa !59
  call void @llvm.lifetime.start.p0(i64 4, ptr %11) #11
  store i32 0, ptr %11, align 4, !tbaa !31
  %29 = load ptr, ptr %10, align 8, !tbaa !59
  %30 = call i32 @gtk_tree_selection_get_selected(ptr noundef %29, ptr noundef %9, ptr noundef %8)
  %31 = icmp ne i32 %30, 0
  br i1 %31, label %32, label %97

32:                                               ; preds = %3
  call void @llvm.lifetime.start.p0(i64 8, ptr %12) #11
  %33 = load ptr, ptr %9, align 8, !tbaa !36
  %34 = call ptr @gtk_tree_model_get_path(ptr noundef %33, ptr noundef %8)
  store ptr %34, ptr %12, align 8, !tbaa !138
  %35 = load ptr, ptr %5, align 8, !tbaa !149
  %36 = getelementptr inbounds nuw %struct._GdkEventKey, ptr %35, i32 0, i32 5
  %37 = load i32, ptr %36, align 4, !tbaa !151
  switch i32 %37, label %94 [
    i32 65293, label %38
    i32 65421, label %38
    i32 65361, label %59
    i32 65363, label %80
  ]

38:                                               ; preds = %32, %32
  %39 = load ptr, ptr %6, align 8, !tbaa !6
  %40 = load ptr, ptr %7, align 8, !tbaa !19
  call void @_attach_selected_tag(ptr noundef %39, ptr noundef %40)
  %41 = load ptr, ptr %5, align 8, !tbaa !149
  %42 = getelementptr inbounds nuw %struct._GdkEventKey, ptr %41, i32 0, i32 4
  %43 = load i32, ptr %42, align 8, !tbaa !168
  %44 = call i32 @dt_modifier_is(i32 noundef %43, i32 noundef 1)
  %45 = icmp ne i32 %44, 0
  br i1 %45, label %46, label %58

46:                                               ; preds = %38
  %47 = load ptr, ptr %10, align 8, !tbaa !59
  call void @gtk_tree_selection_unselect_all(ptr noundef %47)
  %48 = load ptr, ptr %7, align 8, !tbaa !19
  %49 = getelementptr inbounds nuw %struct.dt_lib_tagging_t, ptr %48, i32 0, i32 1
  %50 = load ptr, ptr %49, align 8, !tbaa !103
  %51 = call i64 @gtk_entry_get_type() #12
  %52 = call ptr @g_type_check_instance_cast(ptr noundef %50, i64 noundef %51)
  call void @gtk_entry_set_text(ptr noundef %52, ptr noundef @.str.5)
  %53 = load ptr, ptr %7, align 8, !tbaa !19
  %54 = getelementptr inbounds nuw %struct.dt_lib_tagging_t, ptr %53, i32 0, i32 1
  %55 = load ptr, ptr %54, align 8, !tbaa !103
  %56 = call i64 @gtk_widget_get_type() #12
  %57 = call ptr @g_type_check_instance_cast(ptr noundef %55, i64 noundef %56)
  call void @gtk_widget_grab_focus(ptr noundef %57)
  store i32 1, ptr %11, align 4, !tbaa !31
  br label %58

58:                                               ; preds = %46, %38
  br label %95

59:                                               ; preds = %32
  %60 = load ptr, ptr %12, align 8, !tbaa !138
  %61 = icmp ne ptr %60, null
  br i1 %61, label %62, label %79

62:                                               ; preds = %59
  %63 = load ptr, ptr %5, align 8, !tbaa !149
  %64 = getelementptr inbounds nuw %struct._GdkEventKey, ptr %63, i32 0, i32 4
  %65 = load i32, ptr %64, align 8, !tbaa !168
  %66 = call i32 @dt_modifier_is(i32 noundef %65, i32 noundef 1)
  %67 = icmp ne i32 %66, 0
  br i1 %67, label %68, label %72

68:                                               ; preds = %62
  %69 = load ptr, ptr %4, align 8, !tbaa !108
  %70 = call i64 @gtk_tree_view_get_type() #12
  %71 = call ptr @g_type_check_instance_cast(ptr noundef %69, i64 noundef %70)
  call void @gtk_tree_view_collapse_all(ptr noundef %71)
  br label %78

72:                                               ; preds = %62
  %73 = load ptr, ptr %4, align 8, !tbaa !108
  %74 = call i64 @gtk_tree_view_get_type() #12
  %75 = call ptr @g_type_check_instance_cast(ptr noundef %73, i64 noundef %74)
  %76 = load ptr, ptr %12, align 8, !tbaa !138
  %77 = call i32 @gtk_tree_view_collapse_row(ptr noundef %75, ptr noundef %76)
  br label %78

78:                                               ; preds = %72, %68
  store i32 1, ptr %11, align 4, !tbaa !31
  br label %79

79:                                               ; preds = %78, %59
  br label %95

80:                                               ; preds = %32
  %81 = load ptr, ptr %12, align 8, !tbaa !138
  %82 = icmp ne ptr %81, null
  br i1 %82, label %83, label %93

83:                                               ; preds = %80
  %84 = load ptr, ptr %4, align 8, !tbaa !108
  %85 = call i64 @gtk_tree_view_get_type() #12
  %86 = call ptr @g_type_check_instance_cast(ptr noundef %84, i64 noundef %85)
  %87 = load ptr, ptr %12, align 8, !tbaa !138
  %88 = load ptr, ptr %5, align 8, !tbaa !149
  %89 = getelementptr inbounds nuw %struct._GdkEventKey, ptr %88, i32 0, i32 4
  %90 = load i32, ptr %89, align 8, !tbaa !168
  %91 = call i32 @dt_modifier_is(i32 noundef %90, i32 noundef 1)
  %92 = call i32 @gtk_tree_view_expand_row(ptr noundef %86, ptr noundef %87, i32 noundef %91)
  store i32 1, ptr %11, align 4, !tbaa !31
  br label %93

93:                                               ; preds = %83, %80
  br label %95

94:                                               ; preds = %32
  br label %95

95:                                               ; preds = %94, %93, %79, %58
  %96 = load ptr, ptr %12, align 8, !tbaa !138
  call void @gtk_tree_path_free(ptr noundef %96)
  call void @llvm.lifetime.end.p0(i64 8, ptr %12) #11
  br label %97

97:                                               ; preds = %95, %3
  %98 = load ptr, ptr %5, align 8, !tbaa !149
  %99 = getelementptr inbounds nuw %struct._GdkEventKey, ptr %98, i32 0, i32 5
  %100 = load i32, ptr %99, align 4, !tbaa !151
  %101 = icmp eq i32 %100, 65289
  br i1 %101, label %102, label %104

102:                                              ; preds = %97
  %103 = load ptr, ptr %10, align 8, !tbaa !59
  call void @gtk_tree_selection_unselect_all(ptr noundef %103)
  store i32 1, ptr %11, align 4, !tbaa !31
  br label %117

104:                                              ; preds = %97
  %105 = load ptr, ptr %5, align 8, !tbaa !149
  %106 = getelementptr inbounds nuw %struct._GdkEventKey, ptr %105, i32 0, i32 5
  %107 = load i32, ptr %106, align 4, !tbaa !151
  %108 = icmp eq i32 %107, 65056
  br i1 %108, label %109, label %116

109:                                              ; preds = %104
  %110 = load ptr, ptr %10, align 8, !tbaa !59
  call void @gtk_tree_selection_unselect_all(ptr noundef %110)
  %111 = load ptr, ptr %7, align 8, !tbaa !19
  %112 = getelementptr inbounds nuw %struct.dt_lib_tagging_t, ptr %111, i32 0, i32 1
  %113 = load ptr, ptr %112, align 8, !tbaa !103
  %114 = call i64 @gtk_widget_get_type() #12
  %115 = call ptr @g_type_check_instance_cast(ptr noundef %113, i64 noundef %114)
  call void @gtk_widget_grab_focus(ptr noundef %115)
  store i32 1, ptr %11, align 4, !tbaa !31
  br label %116

116:                                              ; preds = %109, %104
  br label %117

117:                                              ; preds = %116, %102
  %118 = load i32, ptr %11, align 4, !tbaa !31
  call void @llvm.lifetime.end.p0(i64 4, ptr %11) #11
  call void @llvm.lifetime.end.p0(i64 8, ptr %10) #11
  call void @llvm.lifetime.end.p0(i64 8, ptr %9) #11
  call void @llvm.lifetime.end.p0(i64 32, ptr %8) #11
  call void @llvm.lifetime.end.p0(i64 8, ptr %7) #11
  ret i32 %118
}