; Function Attrs: nounwind uwtable
define internal range(i32 0, 2) i32 @_dictionary_key_pressed(ptr noundef %0, ptr noundef readonly captures(none) %1, ptr noundef %2) #1 {
  %4 = alloca %struct._GtkTreeIter, align 8
  %5 = alloca ptr, align 8
  %6 = getelementptr inbounds nuw i8, ptr %2, i64 280
  %7 = load ptr, ptr %6, align 8, !tbaa !6
  %8 = getelementptr inbounds nuw i8, ptr %7, i64 1040
  %9 = load ptr, ptr %8, align 8, !tbaa !28
  %10 = tail call ptr @gtk_tree_view_get_selection(ptr noundef %9) #16
  tail call void @gtk_tree_selection_unselect_all(ptr noundef %10) #16
  call void @llvm.lifetime.start.p0(i64 32, ptr nonnull %4) #16
  call void @llvm.lifetime.start.p0(i64 8, ptr nonnull %5) #16
  %11 = getelementptr inbounds nuw i8, ptr %7, i64 1048
  %12 = load ptr, ptr %11, align 8, !tbaa !27
  %13 = tail call i64 @gtk_tree_view_get_type() #17
  %14 = tail call ptr @g_type_check_instance_cast(ptr noundef %12, i64 noundef %13) #16
  %15 = tail call ptr @gtk_tree_view_get_model(ptr noundef %14) #16
  store ptr %15, ptr %5, align 8, !tbaa !29
  %16 = tail call ptr @g_type_check_instance_cast(ptr noundef %0, i64 noundef %13) #16
  %17 = tail call ptr @gtk_tree_view_get_selection(ptr noundef %16) #16
  %18 = call i32 @gtk_tree_selection_get_selected(ptr noundef %17, ptr noundef nonnull %5, ptr noundef nonnull %4) #16
  %.not = icmp eq i32 %18, 0
  br i1 %.not, label %64, label %19

19:                                               ; preds = %3
  %20 = load ptr, ptr %5, align 8, !tbaa !29
  %21 = call ptr @gtk_tree_model_get_path(ptr noundef %20, ptr noundef nonnull %4) #16
  %22 = getelementptr inbounds nuw i8, ptr %1, i64 28
  %23 = load i32, ptr %22, align 4, !tbaa !122
  switch i32 %23, label %63 [
    i32 65293, label %24
    i32 65421, label %24
    i32 65361, label %39
    i32 65363, label %51
  ]

24:                                               ; preds = %19, %19
  call fastcc void @_attach_selected_tag(ptr noundef nonnull %2, ptr noundef nonnull %7)
  %25 = getelementptr inbounds nuw i8, ptr %1, i64 24
  %26 = load i32, ptr %25, align 8, !tbaa !136
  %27 = call i32 @gtk_accelerator_get_default_mod_mask() #16
  %28 = load i32, ptr @dt_modifier_shortcuts, align 4, !tbaa !46
  %29 = or i32 %28, %26
  %30 = and i32 %29, %27
  %.not35 = icmp eq i32 %30, 1
  br i1 %.not35, label %31, label %63

31:                                               ; preds = %24
  call void @gtk_tree_selection_unselect_all(ptr noundef %17) #16
  %32 = getelementptr inbounds nuw i8, ptr %7, i64 1024
  %33 = load ptr, ptr %32, align 8, !tbaa !95
  %34 = tail call i64 @gtk_entry_get_type() #17
  %35 = call ptr @g_type_check_instance_cast(ptr noundef %33, i64 noundef %34) #16
  call void @gtk_entry_set_text(ptr noundef %35, ptr noundef nonnull @.str.5) #16
  %36 = load ptr, ptr %32, align 8, !tbaa !95
  %37 = tail call i64 @gtk_widget_get_type() #17
  %38 = call ptr @g_type_check_instance_cast(ptr noundef %36, i64 noundef %37) #16
  call void @gtk_widget_grab_focus(ptr noundef %38) #16
  br label %63

39:                                               ; preds = %19
  %.not31 = icmp eq ptr %21, null
  br i1 %.not31, label %63, label %40

40:                                               ; preds = %39
  %41 = getelementptr inbounds nuw i8, ptr %1, i64 24
  %42 = load i32, ptr %41, align 8, !tbaa !136
  %43 = call i32 @gtk_accelerator_get_default_mod_mask() #16
  %44 = load i32, ptr @dt_modifier_shortcuts, align 4, !tbaa !46
  %45 = or i32 %44, %42
  %46 = and i32 %45, %43
  %.not34 = icmp eq i32 %46, 1
  %47 = call ptr @g_type_check_instance_cast(ptr noundef %0, i64 noundef %13) #16
  br i1 %.not34, label %48, label %49

48:                                               ; preds = %40
  call void @gtk_tree_view_collapse_all(ptr noundef %47) #16
  br label %63

49:                                               ; preds = %40
  %50 = call i32 @gtk_tree_view_collapse_row(ptr noundef %47, ptr noundef nonnull %21) #16
  br label %63

51:                                               ; preds = %19
  %.not30 = icmp eq ptr %21, null
  br i1 %.not30, label %63, label %52

52:                                               ; preds = %51
  %53 = call ptr @g_type_check_instance_cast(ptr noundef %0, i64 noundef %13) #16
  %54 = getelementptr inbounds nuw i8, ptr %1, i64 24
  %55 = load i32, ptr %54, align 8, !tbaa !136
  %56 = call i32 @gtk_accelerator_get_default_mod_mask() #16
  %57 = load i32, ptr @dt_modifier_shortcuts, align 4, !tbaa !46
  %58 = or i32 %57, %55
  %59 = and i32 %58, %56
  %60 = icmp eq i32 %59, 1
  %61 = zext i1 %60 to i32
  %62 = call i32 @gtk_tree_view_expand_row(ptr noundef %53, ptr noundef nonnull %21, i32 noundef %61) #16
  br label %63

63:                                               ; preds = %48, %49, %19, %51, %52, %39, %24, %31
  %.1 = phi i32 [ 0, %19 ], [ 1, %52 ], [ 0, %51 ], [ 0, %39 ], [ 1, %31 ], [ 0, %24 ], [ 1, %49 ], [ 1, %48 ]
  call void @gtk_tree_path_free(ptr noundef %21) #16
  br label %64

64:                                               ; preds = %63, %3
  %.0 = phi i32 [ %.1, %63 ], [ 0, %3 ]
  %65 = getelementptr inbounds nuw i8, ptr %1, i64 28
  %66 = load i32, ptr %65, align 4, !tbaa !122
  switch i32 %66, label %73 [
    i32 65289, label %67
    i32 65056, label %68
  ]

67:                                               ; preds = %64
  call void @gtk_tree_selection_unselect_all(ptr noundef %17) #16
  br label %73

68:                                               ; preds = %64
  call void @gtk_tree_selection_unselect_all(ptr noundef %17) #16
  %69 = getelementptr inbounds nuw i8, ptr %7, i64 1024
  %70 = load ptr, ptr %69, align 8, !tbaa !95
  %71 = tail call i64 @gtk_widget_get_type() #17
  %72 = call ptr @g_type_check_instance_cast(ptr noundef %70, i64 noundef %71) #16
  call void @gtk_widget_grab_focus(ptr noundef %72) #16
  br label %73

73:                                               ; preds = %64, %68, %67
  %.2 = phi i32 [ 1, %67 ], [ 1, %68 ], [ %.0, %64 ]
  call void @llvm.lifetime.end.p0(i64 8, ptr nonnull %5) #16
  call void @llvm.lifetime.end.p0(i64 32, ptr nonnull %4) #16
  ret i32 %.2
}